target datalayout = "e-m:e-p270:32:32-p271:32:32-p272:64:64-i64:64-i128:128-f80:128-n8:16:32:64-S128"
target triple = "x86_64-pc-linux-gnu"

@stderr = external global ptr, align 8
@.str.14 = private unnamed_addr constant [2 x i8] c"\0A\00", align 1
@.str.119 = private unnamed_addr constant [10 x i8] c"Stack now\00", align 1
@.str.120 = private unnamed_addr constant [4 x i8] c" %d\00", align 1

; Function Attrs: mustprogress nounwind uwtable
define internal void @_ZL14yy_stack_printPsS_(ptr noundef %0, ptr noundef %1) #4 {
  %3 = alloca ptr, align 8
  %4 = alloca ptr, align 8
  %5 = alloca i32, align 4
  store ptr %0, ptr %3, align 8, !tbaa !43
  store ptr %1, ptr %4, align 8, !tbaa !43
  %6 = load ptr, ptr @stderr, align 8, !tbaa !52
  %7 = call i32 (ptr, ptr, ...) @fprintf(ptr noundef %6, ptr noundef @.str.119) #3
  br label %8

8:                                                ; preds = %19, %2
  %9 = load ptr, ptr %3, align 8, !tbaa !43
  %10 = load ptr, ptr %4, align 8, !tbaa !43
  %11 = icmp ule ptr %9, %10
  br i1 %11, label %12, label %22

12:                                               ; preds = %8
  call void @llvm.lifetime.start.p0(i64 4, ptr %5) #3
  %13 = load ptr, ptr %3, align 8, !tbaa !43
  %14 = load i16, ptr %13, align 2, !tbaa !54
  %15 = sext i16 %14 to i32
  store i32 %15, ptr %5, align 4, !tbaa !39
  %16 = load ptr, ptr @stderr, align 8, !tbaa !52
  %17 = load i32, ptr %5, align 4, !tbaa !39
  %18 = call i32 (ptr, ptr, ...) @fprintf(ptr noundef %16, ptr noundef @.str.120, i32 noundef %17) #3
  call void @llvm.lifetime.end.p0(i64 4, ptr %5) #3
  br label %19

19:                                               ; preds = %12
  %20 = load ptr, ptr %3, align 8, !tbaa !43
  %21 = getelementptr inbounds nuw i16, ptr %20, i32 1
  store ptr %21, ptr %3, align 8, !tbaa !43
  br label %8, !llvm.loop !158

22:                                               ; preds = %8
  %23 = load ptr, ptr @stderr, align 8, !tbaa !52
  %24 = call i32 (ptr, ptr, ...) @fprintf(ptr noundef %23, ptr noundef @.str.14) #3
  ret void
}